TN:
SF:/Users/liptan/Documents/Prog/Git/Sem3_Laba_3/Array.h
FNL:0,10,16
FNA:0,7,_ZN5ArrayI10SinglyListIiEE4growEv
FNA:0,13,_ZN5ArrayIiE4growEv
FNL:1,18,18
FNA:1,5,_ZN5ArrayI10SinglyListIiEEC1Ev
FNA:1,5,_ZN5ArrayI10SinglyListIiEEC2Ev
FNA:1,7,_ZN5ArrayIiEC1Ev
FNA:1,7,_ZN5ArrayIiEC2Ev
FNL:2,19,19
FNA:2,5,_ZN5ArrayI10SinglyListIiEED1Ev
FNA:2,5,_ZN5ArrayI10SinglyListIiEED2Ev
FNA:2,7,_ZN5ArrayIiED1Ev
FNA:2,7,_ZN5ArrayIiED2Ev
FNL:3,21,24
FNA:3,52,_ZN5ArrayI10SinglyListIiEE9push_backES1_
FNA:3,1010,_ZN5ArrayIiE9push_backEi
FNL:4,25,30
FNA:4,1,_ZN5ArrayIiE8pop_backEv
FNL:5,31,37
FNA:5,1,_ZN5ArrayIiE6insertEii
FNL:6,38,42
FNA:6,4,_ZN5ArrayIiE6removeEi
FNL:7,43,46
FNA:7,1,_ZN5ArrayIiE7replaceEii
FNL:8,47,47
FNA:8,50,_ZN5ArrayI10SinglyListIiEEixEi
FNA:8,10,_ZN5ArrayIiEixEi
FNL:9,48,48
FNA:9,15,_ZNK5ArrayIiE6lengthEv
FNF:10
FNH:10
DA:10,20
DA:11,20
DA:12,20
DA:13,1052
DA:14,20
DA:15,20
DA:16,20
DA:18,24
DA:19,24
DA:21,1062
DA:22,1062
DA:23,1062
DA:24,1062
DA:25,1
DA:26,1
DA:27,1
DA:28,1
DA:29,1
DA:30,1
DA:31,1
DA:32,1
DA:33,1
DA:34,2
DA:35,1
DA:36,1
DA:37,1
DA:38,4
DA:39,4
DA:40,6
DA:41,4
DA:42,4
DA:43,1
DA:44,1
DA:45,1
DA:46,1
DA:47,60
DA:48,15
LF:37
LH:37
end_of_record
TN:
SF:/Users/liptan/Documents/Prog/Git/Sem3_Laba_3/BST.h
FNL:0,11,11
FNA:0,17,_ZN8TreeNodeIiEC1Ei
FNA:0,17,_ZN8TreeNodeIiEC2Ei
FNL:1,15,16
FNA:1,4,_ZN3BSTIiEC1Ev
FNA:1,4,_ZN3BSTIiEC2Ev
FNL:2,18,23
FNA:2,37,_ZN3BSTIiE6insertEP8TreeNodeIiEi
FNL:3,24,26
FNA:3,1,_ZN3BSTIiE3minEP8TreeNodeIiE
FNL:4,28,40
FNA:4,7,_ZN3BSTIiE6removeEP8TreeNodeIiEi
FNL:5,44,46
FNA:5,32,_ZN3BSTIiE5clearEP8TreeNodeIiE
FNL:6,48,48
FNA:6,17,_ZN3BSTIiE6insertEi
FNL:7,49,49
FNA:7,3,_ZN3BSTIiE6removeEi
FNL:8,50,57
FNA:8,7,_ZN3BSTIiE4findEi
FNL:9,59,59
FNA:9,4,_ZN3BSTIiED1Ev
FNA:9,4,_ZN3BSTIiED2Ev
FNF:10
FNH:10
DA:9,17
DA:10,17
DA:11,51
DA:15,4
DA:16,4
DA:18,37
DA:19,37
DA:20,20
DA:21,7
DA:22,20
DA:23,37
DA:24,1
DA:25,2
DA:26,1
DA:28,7
DA:29,7
DA:30,7
DA:31,4
DA:33,4
DA:34,2
DA:35,1
DA:36,1
DA:37,1
DA:39,4
DA:40,7
DA:44,32
DA:45,32
DA:46,32
DA:48,17
DA:49,3
DA:50,7
DA:51,7
DA:52,18
DA:53,14
DA:54,11
DA:56,4
DA:57,7
DA:59,8
LF:38
LH:38
end_of_record
TN:
SF:/Users/liptan/Documents/Prog/Git/Sem3_Laba_3/DoublyList.h
FNL:0,110,114
FNA:0,2,_ZN10DoublyListIiE4findEi
FNL:1,119,119
FNA:1,8,_ZNK10DoublyListIiE6lengthEv
FNL:2,12,12
FNA:2,5,_ZN10DoublyListIiED1Ev
FNA:2,5,_ZN10DoublyListIiED2Ev
FNL:3,14,21
FNA:3,2,_ZN10DoublyListIiE10push_frontEi
FNL:4,22,29
FNA:4,13,_ZN10DoublyListIiE9push_backEi
FNL:5,30,38
FNA:5,1,_ZN10DoublyListIiE12insert_afterEP4NodeIiEi
FNL:6,39,43
FNA:6,1,_ZN10DoublyListIiE13insert_beforeEP4NodeIiEi
FNL:7,44,52
FNA:7,1,_ZN10DoublyListIiE6removeEP4NodeIiE
FNL:8,53,57
FNA:8,1,_ZN10DoublyListIiE12remove_valueEi
FNL:9,58,71
FNA:9,3,_ZN10DoublyListIiE9pop_frontEv
FNL:10,7,10
FNA:10,5,_ZN10DoublyListIiEC1Ev
FNA:10,5,_ZN10DoublyListIiEC2Ev
FNL:11,72,83
FNA:11,1,_ZN10DoublyListIiE8pop_backEv
FNL:12,84,96
FNA:12,1,_ZN10DoublyListIiE13remove_beforeEP4NodeIiE
FNL:13,97,109
FNA:13,1,_ZN10DoublyListIiE12remove_afterEP4NodeIiE
FNF:14
FNH:14
DA:7,5
DA:8,5
DA:9,5
DA:10,5
DA:12,19
DA:14,2
DA:15,2
DA:16,2
DA:17,2
DA:18,2
DA:19,2
DA:20,2
DA:21,2
DA:22,13
DA:23,13
DA:24,13
DA:25,13
DA:26,13
DA:27,13
DA:28,13
DA:29,13
DA:30,1
DA:31,1
DA:32,1
DA:33,1
DA:34,1
DA:35,1
DA:36,1
DA:37,1
DA:38,1
DA:39,1
DA:40,1
DA:41,1
DA:42,0
DA:43,1
DA:44,1
DA:45,1
DA:46,1
DA:47,1
DA:48,1
DA:49,1
DA:50,1
DA:51,1
DA:52,1
DA:53,1
DA:54,2
DA:55,2
DA:56,0
DA:57,1
DA:58,3
DA:59,3
DA:60,3
DA:61,3
DA:62,3
DA:63,2
DA:64,2
DA:65,1
DA:67,3
DA:68,3
DA:69,3
DA:70,3
DA:71,3
DA:72,1
DA:73,1
DA:74,1
DA:75,1
DA:76,1
DA:77,1
DA:78,1
DA:79,0
DA:81,1
DA:82,1
DA:83,1
DA:84,1
DA:85,1
DA:86,1
DA:87,1
DA:88,1
DA:89,1
DA:90,1
DA:91,1
DA:92,0
DA:93,0
DA:94,1
DA:95,1
DA:96,1
DA:97,1
DA:98,1
DA:99,1
DA:100,1
DA:101,1
DA:102,0
DA:103,0
DA:104,1
DA:105,1
DA:106,1
DA:107,1
DA:108,1
DA:109,1
DA:110,2
DA:111,4
DA:112,4
DA:113,0
DA:114,2
DA:119,8
LF:105
LH:97
end_of_record
TN:
SF:/Users/liptan/Documents/Prog/Git/Sem3_Laba_3/HashTable_Chain.h
FNL:0,15,16
FNA:0,35,_ZNK9HashTableIiE4hashERKi
FNL:1,19,36
FNA:1,2,_ZN9HashTableIiE6resizeEv
FNL:2,39,43
FNA:2,3,_ZN9HashTableIiEC1Ei
FNA:2,3,_ZN9HashTableIiEC2Ei
FNL:3,45,54
FNA:3,15,_ZN9HashTableIiE6insertEi
FNL:4,56,61
FNA:4,1,_ZN9HashTableIiE6removeEi
FNL:5,63,65
FNA:5,19,_ZN9HashTableIiE8containsEi
FNL:6,9,13
FNA:6,3,_ZN9HashTableIiED1Ev
FNA:6,3,_ZN9HashTableIiED2Ev
FNF:7
FNH:7
DA:13,3
DA:15,35
DA:16,35
DA:19,2
DA:20,2
DA:21,2
DA:22,26
DA:23,24
DA:24,24
DA:26,14
DA:27,12
DA:28,16
DA:29,4
DA:30,4
DA:31,4
DA:33,12
DA:34,2
DA:35,2
DA:36,2
DA:39,6
DA:40,31
DA:41,28
DA:42,28
DA:43,6
DA:45,15
DA:46,15
DA:47,15
DA:48,14
DA:49,14
DA:50,14
DA:51,2
DA:52,2
DA:53,14
DA:54,15
DA:56,1
DA:57,1
DA:58,1
DA:59,1
DA:60,1
DA:61,1
DA:63,19
DA:64,19
DA:65,19
LF:43
LH:43
end_of_record
TN:
SF:/Users/liptan/Documents/Prog/Git/Sem3_Laba_3/Queue.h
FNL:0,10,10
FNA:0,2,_ZN5QueueIiE4pushEi
FNL:1,11,16
FNA:1,2,_ZN5QueueIiE3popEv
FNL:2,19,19
FNA:2,1,_ZNK5QueueIiE5emptyEv
FNL:3,20,20
FNA:3,1,_ZNK5QueueIiE4sizeEv
FNL:4,7,10
FNA:4,1,_ZN5QueueIiEC1Ev
FNA:4,1,_ZN5QueueIiEC2Ev
FNA:4,1,_ZN5QueueIiED1Ev
FNA:4,1,_ZN5QueueIiED2Ev
FNF:5
FNH:5
DA:10,2
DA:11,2
DA:13,2
DA:14,2
DA:15,2
DA:16,2
DA:19,1
DA:20,1
LF:8
LH:8
end_of_record
TN:
SF:/Users/liptan/Documents/Prog/Git/Sem3_Laba_3/SinglyList.h
FNL:0,103,117
FNA:0,4,_ZN10SinglyListIiE12remove_valueEi
FNL:1,11,11
FNA:1,48,_ZN4NodeIiEC1Ei
FNA:1,48,_ZN4NodeIiEC2Ei
FNL:2,122,122
FNA:2,5,_ZNK10SinglyListIiE6lengthEv
FNL:3,123,123
FNA:3,12,_ZNK10SinglyListIiE8get_headEv
FNL:4,15,18
FNA:4,128,_ZN10SinglyListIiEC1Ev
FNA:4,128,_ZN10SinglyListIiEC2Ev
FNL:5,20,20
FNA:5,21,_ZN10SinglyListIiE3delEP4NodeIiE
FNL:6,22,22
FNA:6,120,_ZN10SinglyListIiED1Ev
FNA:6,120,_ZN10SinglyListIiED2Ev
FNL:7,24,30
FNA:7,2,_ZN10SinglyListIiE10push_frontEi
FNL:8,31,37
FNA:8,29,_ZN10SinglyListIiE9push_backEi
FNL:9,38,45
FNA:9,1,_ZN10SinglyListIiE12insert_afterEP4NodeIiEi
FNL:10,46,52
FNA:10,1,_ZN10SinglyListIiE13insert_beforeEP4NodeIiEi
FNL:11,54,61
FNA:11,19,_ZN10SinglyListIiE9pop_frontEv
FNL:12,62,71
FNA:12,1,_ZN10SinglyListIiE8pop_backEv
FNL:13,87,96
FNA:13,1,_ZN10SinglyListIiE12remove_afterEP4NodeIiE
FNL:14,98,101
FNA:14,21,_ZN10SinglyListIiE4findEi
FNF:15
FNH:15
DA:11,96
DA:15,128
DA:16,128
DA:17,128
DA:18,128
DA:20,21
DA:22,256
DA:24,2
DA:25,2
DA:26,2
DA:27,2
DA:28,2
DA:29,2
DA:30,2
DA:31,29
DA:32,29
DA:33,29
DA:34,29
DA:35,29
DA:36,29
DA:37,29
DA:38,1
DA:39,1
DA:40,1
DA:41,1
DA:42,1
DA:43,1
DA:44,1
DA:45,1
DA:46,1
DA:47,1
DA:48,1
DA:49,0
DA:50,0
DA:51,0
DA:52,1
DA:54,19
DA:55,19
DA:56,19
DA:57,19
DA:58,19
DA:59,19
DA:60,19
DA:61,19
DA:62,1
DA:63,1
DA:64,1
DA:65,1
DA:66,1
DA:67,1
DA:68,1
DA:69,1
DA:70,1
DA:71,1
DA:87,1
DA:88,1
DA:89,1
DA:90,1
DA:91,1
DA:92,1
DA:93,1
DA:94,1
DA:95,1
DA:96,1
DA:98,21
DA:99,21
DA:100,24
DA:101,21
DA:103,4
DA:104,4
DA:105,4
DA:106,2
DA:107,2
DA:108,2
DA:109,1
DA:110,1
DA:111,1
DA:112,1
DA:113,1
DA:114,1
DA:116,1
DA:117,4
DA:122,5
DA:123,12
LF:84
LH:81
end_of_record
TN:
SF:/Users/liptan/Documents/Prog/Git/Sem3_Laba_3/Stack.h
FNL:0,10,10
FNA:0,2,_ZN5StackIiE4pushEi
FNL:1,11,17
FNA:1,2,_ZN5StackIiE3popEv
FNL:2,20,20
FNA:2,1,_ZNK5StackIiE5emptyEv
FNL:3,21,21
FNA:3,1,_ZNK5StackIiE4sizeEv
FNL:4,7,10
FNA:4,1,_ZN5StackIiEC1Ev
FNA:4,1,_ZN5StackIiEC2Ev
FNA:4,1,_ZN5StackIiED1Ev
FNA:4,1,_ZN5StackIiED2Ev
FNF:5
FNH:5
DA:10,2
DA:11,2
DA:13,2
DA:14,2
DA:15,2
DA:16,2
DA:17,2
DA:20,1
DA:21,1
LF:9
LH:9
end_of_record
TN:
SF:/Users/liptan/Documents/Prog/Git/Sem3_Laba_3/tests/all_tests.cpp
